; Function Attrs: mustprogress nofree norecurse nosync nounwind willreturn memory(write, argmem: readwrite, inaccessiblemem: none) uwtable
define internal void @flush(ptr noundef readonly captures(none) %0) #2 {
  %2 = getelementptr inbounds nuw i8, ptr %0, i64 32
  %3 = load ptr, ptr %2, align 8, !tbaa !4
  %4 = getelementptr inbounds nuw i8, ptr %3, i64 1168
  tail call void @llvm.memset.p0.i64(ptr noundef nonnull align 16 dereferenceable(8192) %4, i8 0, i64 8192, i1 false)
  %5 = getelementptr inbounds nuw i8, ptr %3, i64 18592
  tail call void @llvm.memset.p0.i64(ptr noundef nonnull align 16 dereferenceable(4608) %5, i8 0, i64 4608, i1 false)
  %6 = getelementptr inbounds nuw i8, ptr %3, i64 1088
  store i32 0, ptr %6, align 16, !tbaa !60
  %7 = getelementptr inbounds nuw i8, ptr %3, i64 32932
  store i32 0, ptr %7, align 4, !tbaa !61
  ret void
}